target datalayout = "e-m:e-p270:32:32-p271:32:32-p272:64:64-i64:64-i128:128-f80:128-n8:16:32:64-S128"
target triple = "x86_64-pc-linux-gnu"

%"class.gmx::AtomsBuilder" = type { ptr, ptr, i32, i32, i32, i32 }
%struct.t_atoms = type { i32, ptr, ptr, ptr, ptr, i32, ptr, ptr, i8, i8, i8, i8, i8 }
%struct.t_atom = type { float, float, float, float, i16, i16, i32, i32, i32, [4 x i8] }

; Function Attrs: mustprogress nounwind uwtable
define void @_ZN3gmx12AtomsBuilder21discardCurrentResidueEv(ptr noundef nonnull align 8 dereferenceable(32) %0) #0 align 2 {
  %2 = alloca ptr, align 8
  %3 = alloca i32, align 4
  store ptr %0, ptr %2, align 8, !tbaa !4
  %4 = load ptr, ptr %2, align 8
  call void @llvm.lifetime.start.p0(i64 4, ptr %3) #13
  %5 = getelementptr inbounds nuw %"class.gmx::AtomsBuilder", ptr %4, i32 0, i32 0
  %6 = load ptr, ptr %5, align 8, !tbaa !13
  %7 = getelementptr inbounds nuw %struct.t_atoms, ptr %6, i32 0, i32 0
  %8 = load i32, ptr %7, align 8, !tbaa !17
  %9 = sub nsw i32 %8, 1
  store i32 %9, ptr %3, align 4, !tbaa !38
  br label %10

10:                                               ; preds = %29, %1
  %11 = load i32, ptr %3, align 4, !tbaa !38
  %12 = icmp sgt i32 %11, 0
  br i1 %12, label %13, label %27

13:                                               ; preds = %10
  %14 = getelementptr inbounds nuw %"class.gmx::AtomsBuilder", ptr %4, i32 0, i32 0
  %15 = load ptr, ptr %14, align 8, !tbaa !13
  %16 = getelementptr inbounds nuw %struct.t_atoms, ptr %15, i32 0, i32 1
  %17 = load ptr, ptr %16, align 8, !tbaa !55
  %18 = load i32, ptr %3, align 4, !tbaa !38
  %19 = sub nsw i32 %18, 1
  %20 = sext i32 %19 to i64
  %21 = getelementptr inbounds %struct.t_atom, ptr %17, i64 %20
  %22 = getelementptr inbounds nuw %struct.t_atom, ptr %21, i32 0, i32 7
  %23 = load i32, ptr %22, align 4, !tbaa !65
  %24 = getelementptr inbounds nuw %"class.gmx::AtomsBuilder", ptr %4, i32 0, i32 4
  %25 = load i32, ptr %24, align 8, !tbaa !29
  %26 = icmp eq i32 %23, %25
  br label %27

27:                                               ; preds = %13, %10
  %28 = phi i1 [ false, %10 ], [ %26, %13 ]
  br i1 %28, label %29, label %32

29:                                               ; preds = %27
  %30 = load i32, ptr %3, align 4, !tbaa !38
  %31 = add nsw i32 %30, -1
  store i32 %31, ptr %3, align 4, !tbaa !38
  br label %10, !llvm.loop !73

32:                                               ; preds = %27
  %33 = load i32, ptr %3, align 4, !tbaa !38
  %34 = getelementptr inbounds nuw %"class.gmx::AtomsBuilder", ptr %4, i32 0, i32 0
  %35 = load ptr, ptr %34, align 8, !tbaa !13
  %36 = getelementptr inbounds nuw %struct.t_atoms, ptr %35, i32 0, i32 0
  store i32 %33, ptr %36, align 8, !tbaa !17
  %37 = getelementptr inbounds nuw %"class.gmx::AtomsBuilder", ptr %4, i32 0, i32 4
  %38 = load i32, ptr %37, align 8, !tbaa !29
  %39 = getelementptr inbounds nuw %"class.gmx::AtomsBuilder", ptr %4, i32 0, i32 0
  %40 = load ptr, ptr %39, align 8, !tbaa !13
  %41 = getelementptr inbounds nuw %struct.t_atoms, ptr %40, i32 0, i32 5
  store i32 %38, ptr %41, align 8, !tbaa !27
  call void @llvm.lifetime.end.p0(i64 4, ptr %3) #13
  ret void
}