; Function Attrs: mustprogress nofree norecurse nosync nounwind memory(readwrite, inaccessiblemem: none) uwtable
define void @_ZN3gmx12AtomsBuilder21discardCurrentResidueEv(ptr noundef nonnull readonly align 8 captures(none) dereferenceable(32) %0) local_unnamed_addr #9 align 2 {
  %2 = load ptr, ptr %0, align 8, !tbaa !4
  %3 = load i32, ptr %2, align 8, !tbaa !13
  %4 = getelementptr inbounds nuw i8, ptr %2, i64 8
  %5 = getelementptr inbounds nuw i8, ptr %0, i64 24
  %6 = load i32, ptr %5, align 8
  %smin = tail call i32 @llvm.smin.i32(i32 %3, i32 1)
  %7 = add i32 %smin, -1
  br label %8

8:                                                ; preds = %10, %1
  %.0.in = phi i32 [ %3, %1 ], [ %.0, %10 ]
  %9 = icmp sgt i32 %.0.in, 1
  br i1 %9, label %10, label %.critedge

10:                                               ; preds = %8
  %.0 = add nsw i32 %.0.in, -1
  %11 = load ptr, ptr %4, align 8, !tbaa !38
  %12 = zext nneg i32 %.0.in to i64
  %13 = getelementptr %struct.t_atom, ptr %11, i64 %12
  %14 = getelementptr i8, ptr %13, i64 -48
  %15 = load i32, ptr %14, align 4, !tbaa !50
  %16 = icmp eq i32 %15, %6
  br i1 %16, label %8, label %.critedge, !llvm.loop !58

.critedge:                                        ; preds = %8, %10
  %.0.lcssa = phi i32 [ %7, %8 ], [ %.0, %10 ]
  store i32 %.0.lcssa, ptr %2, align 8, !tbaa !13
  %17 = getelementptr inbounds nuw i8, ptr %2, i64 40
  store i32 %6, ptr %17, align 8, !tbaa !23
  ret void
}